; Function Attrs: mustprogress uwtable
define hidden noundef zeroext i1 @_ZNK4cvc58internal19SharedTermsDatabase7isKnownENS0_12NodeTemplateILb0EEE(ptr nocapture noundef nonnull readonly align 8 dereferenceable(592) %this, ptr nocapture noundef readonly %literal) local_unnamed_addr #3 align 2 personality ptr @__gxx_personality_v0 {
entry:
  %agg.tmp = alloca %"class.cvc5::internal::NodeTemplate.571", align 8
  %agg.tmp3 = alloca %"class.cvc5::internal::NodeTemplate.571", align 8
  %agg.tmp10 = alloca %"class.cvc5::internal::NodeTemplate.571", align 8
  %agg.tmp12 = alloca %"class.cvc5::internal::NodeTemplate.571", align 8
  %0 = load ptr, ptr %literal, align 8
  %d_kind.i = getelementptr inbounds i8, ptr %0, i64 8
  %bf.load.i = load i16, ptr %d_kind.i, align 8
  %bf.clear.i = and i16 %bf.load.i, 1023
  %cmp.not = icmp eq i16 %bf.clear.i, 18
  br i1 %cmp.not, label %if.else, label %if.then

if.then:                                          ; preds = %entry
  %d_equalityEngine = getelementptr inbounds i8, ptr %this, i64 552
  %1 = load ptr, ptr %d_equalityEngine, align 8
  tail call void @llvm.experimental.noalias.scope.decl(metadata !71)
  %bf.cast.i.i.i.i9 = zext nneg i16 %bf.clear.i to i32
  %cmp.i.i.i.i.i10 = icmp eq i16 %bf.clear.i, 1023
  %cond.i.i.i.i.i11 = select i1 %cmp.i.i.i.i.i10, i32 -1, i32 %bf.cast.i.i.i.i9
  %call2.i.i.i1218 = tail call noundef i32 @_ZN4cvc58internal4kind10metaKindOfENS1_6Kind_tE(i32 noundef %cond.i.i.i.i.i11)
  %cmp.i.i13 = icmp eq i32 %call2.i.i.i1218, 2
  %d_children.i.i15 = getelementptr inbounds i8, ptr %0, i64 16
  %idxprom.i.i16 = zext i1 %cmp.i.i13 to i64
  %arrayidx.i.i17 = getelementptr inbounds [0 x ptr], ptr %d_children.i.i15, i64 0, i64 %idxprom.i.i16
  %2 = load ptr, ptr %arrayidx.i.i17, align 8, !noalias !71
  store ptr %2, ptr %agg.tmp, align 8, !alias.scope !71
  tail call void @llvm.experimental.noalias.scope.decl(metadata !74)
  %bf.load.i.i.i.i20 = load i16, ptr %d_kind.i, align 8, !noalias !74
  %bf.clear.i.i.i.i21 = and i16 %bf.load.i.i.i.i20, 1023
  %bf.cast.i.i.i.i22 = zext nneg i16 %bf.clear.i.i.i.i21 to i32
  %cmp.i.i.i.i.i23 = icmp eq i16 %bf.clear.i.i.i.i21, 1023
  %cond.i.i.i.i.i24 = select i1 %cmp.i.i.i.i.i23, i32 -1, i32 %bf.cast.i.i.i.i22
  %call2.i.i.i2531 = tail call noundef i32 @_ZN4cvc58internal4kind10metaKindOfENS1_6Kind_tE(i32 noundef %cond.i.i.i.i.i24)
  %cmp.i.i26 = icmp eq i32 %call2.i.i.i2531, 2
  %spec.select.i.i = select i1 %cmp.i.i26, i64 2, i64 1
  %arrayidx.i.i30 = getelementptr inbounds [0 x ptr], ptr %d_children.i.i15, i64 0, i64 %spec.select.i.i
  %3 = load ptr, ptr %arrayidx.i.i30, align 8, !noalias !74
  store ptr %3, ptr %agg.tmp3, align 8, !alias.scope !74
  %call8 = call noundef zeroext i1 @_ZNK4cvc58internal6theory2eq14EqualityEngine8areEqualENS0_12NodeTemplateILb0EEES5_(ptr noundef nonnull align 8 dereferenceable(1784) %1, ptr noundef nonnull %agg.tmp, ptr noundef nonnull %agg.tmp3)
  br label %cleanup

if.else:                                          ; preds = %entry
  %call2.i.i.i = tail call noundef i32 @_ZN4cvc58internal4kind10metaKindOfENS1_6Kind_tE(i32 noundef 18), !noalias !77
  %cmp.i.i = icmp eq i32 %call2.i.i.i, 2
  %d_children.i.i = getelementptr inbounds i8, ptr %0, i64 16
  %idxprom.i.i = zext i1 %cmp.i.i to i64
  %arrayidx.i.i = getelementptr inbounds [0 x ptr], ptr %d_children.i.i, i64 0, i64 %idxprom.i.i
  %4 = load ptr, ptr %arrayidx.i.i, align 8, !noalias !77
  %d_equalityEngine9 = getelementptr inbounds i8, ptr %this, i64 552
  %5 = load ptr, ptr %d_equalityEngine9, align 8
  tail call void @llvm.experimental.noalias.scope.decl(metadata !80)
  %d_kind.i.i.i.i33 = getelementptr inbounds i8, ptr %4, i64 8
  %bf.load.i.i.i.i34 = load i16, ptr %d_kind.i.i.i.i33, align 8, !noalias !80
  %bf.clear.i.i.i.i35 = and i16 %bf.load.i.i.i.i34, 1023
  %bf.cast.i.i.i.i36 = zext nneg i16 %bf.clear.i.i.i.i35 to i32
  %cmp.i.i.i.i.i37 = icmp eq i16 %bf.clear.i.i.i.i35, 1023
  %cond.i.i.i.i.i38 = select i1 %cmp.i.i.i.i.i37, i32 -1, i32 %bf.cast.i.i.i.i36
  %call2.i.i.i3945 = tail call noundef i32 @_ZN4cvc58internal4kind10metaKindOfENS1_6Kind_tE(i32 noundef %cond.i.i.i.i.i38)
  %cmp.i.i40 = icmp eq i32 %call2.i.i.i3945, 2
  %d_children.i.i42 = getelementptr inbounds i8, ptr %4, i64 16
  %idxprom.i.i43 = zext i1 %cmp.i.i40 to i64
  %arrayidx.i.i44 = getelementptr inbounds [0 x ptr], ptr %d_children.i.i42, i64 0, i64 %idxprom.i.i43
  %6 = load ptr, ptr %arrayidx.i.i44, align 8, !noalias !80
  store ptr %6, ptr %agg.tmp10, align 8, !alias.scope !80
  tail call void @llvm.experimental.noalias.scope.decl(metadata !83)
  %bf.load.i.i.i.i48 = load i16, ptr %d_kind.i.i.i.i33, align 8, !noalias !83
  %bf.clear.i.i.i.i49 = and i16 %bf.load.i.i.i.i48, 1023
  %bf.cast.i.i.i.i50 = zext nneg i16 %bf.clear.i.i.i.i49 to i32
  %cmp.i.i.i.i.i51 = icmp eq i16 %bf.clear.i.i.i.i49, 1023
  %cond.i.i.i.i.i52 = select i1 %cmp.i.i.i.i.i51, i32 -1, i32 %bf.cast.i.i.i.i50
  %call2.i.i.i5360 = tail call noundef i32 @_ZN4cvc58internal4kind10metaKindOfENS1_6Kind_tE(i32 noundef %cond.i.i.i.i.i52)
  %cmp.i.i54 = icmp eq i32 %call2.i.i.i5360, 2
  %spec.select.i.i56 = select i1 %cmp.i.i54, i64 2, i64 1
  %arrayidx.i.i59 = getelementptr inbounds [0 x ptr], ptr %d_children.i.i42, i64 0, i64 %spec.select.i.i56
  %7 = load ptr, ptr %arrayidx.i.i59, align 8, !noalias !83
  store ptr %7, ptr %agg.tmp12, align 8, !alias.scope !83
  %call17 = call noundef zeroext i1 @_ZNK4cvc58internal6theory2eq14EqualityEngine11areDisequalENS0_12NodeTemplateILb0EEES5_b(ptr noundef nonnull align 8 dereferenceable(1784) %5, ptr noundef nonnull %agg.tmp10, ptr noundef nonnull %agg.tmp12, i1 noundef zeroext false)
  br label %cleanup

cleanup:                                          ; preds = %if.else, %if.then
  %retval.0 = phi i1 [ %call8, %if.then ], [ %call17, %if.else ]
  ret i1 %retval.0
}